target datalayout = "e-m:e-p270:32:32-p271:32:32-p272:64:64-i64:64-i128:128-f80:128-n8:16:32:64-S128"
target triple = "x86_64-pc-linux-gnu"

%"class.OpenImageIO::v3_1_0::ArgParse" = type { %"class.std::shared_ptr" }
%"class.std::shared_ptr" = type { %"class.std::__shared_ptr" }
%"class.std::__shared_ptr" = type { ptr, %"class.std::__shared_count" }
%"class.std::__shared_count" = type { ptr }

; Function Attrs: mustprogress nounwind uwtable
define linkonce_odr void @_ZNSt12__shared_ptrIN11OpenImageIO6v3_1_08ArgParse4ImplELN9__gnu_cxx12_Lock_policyE2EE31_M_enable_shared_from_this_withIS3_S3_EENSt9enable_ifIXntsr15__has_esft_baseIT0_EE5valueEvE4typeEPT_(ptr noundef nonnull align 8 dereferenceable(16) %0, ptr noundef %1) #7 comdat align 2 {
  %3 = alloca ptr, align 8
  %4 = alloca ptr, align 8
  store ptr %0, ptr %3, align 8, !tbaa !142
  store ptr %1, ptr %4, align 8, !tbaa !113
  ret void
}

; Function Attrs: mustprogress uwtable
define linkonce_odr void @_ZNSt14__shared_countILN9__gnu_cxx12_Lock_policyE2EEC2IPN11OpenImageIO6v3_1_08ArgParse4ImplEEET_St17integral_constantIbLb0EE(ptr noundef nonnull align 8 dereferenceable(8) %0, ptr noundef %1) unnamed_addr #6 comdat align 2 {
  %3 = alloca ptr, align 8
  %4 = alloca ptr, align 8
  store ptr %0, ptr %3, align 8, !tbaa !297
  store ptr %1, ptr %4, align 8, !tbaa !113
  %5 = load ptr, ptr %3, align 8
  %6 = load ptr, ptr %4, align 8, !tbaa !113
  call void @_ZNSt14__shared_countILN9__gnu_cxx12_Lock_policyE2EEC2IPN11OpenImageIO6v3_1_08ArgParse4ImplEEET_(ptr noundef nonnull align 8 dereferenceable(8) %5, ptr noundef %6)
  ret void
}

; Function Attrs: mustprogress uwtable
define linkonce_odr void @_ZNSt12__shared_ptrIN11OpenImageIO6v3_1_08ArgParse4ImplELN9__gnu_cxx12_Lock_policyE2EEC2IS3_vEEPT_(ptr noundef nonnull align 8 dereferenceable(16) %0, ptr noundef %1) unnamed_addr #6 comdat align 2 {
  %3 = alloca ptr, align 8
  %4 = alloca ptr, align 8
  store ptr %0, ptr %3, align 8, !tbaa !142
  store ptr %1, ptr %4, align 8, !tbaa !113
  %5 = load ptr, ptr %3, align 8
  %6 = getelementptr inbounds nuw %"class.std::__shared_ptr", ptr %5, i32 0, i32 0
  %7 = load ptr, ptr %4, align 8, !tbaa !113
  store ptr %7, ptr %6, align 8, !tbaa !457
  %8 = getelementptr inbounds nuw %"class.std::__shared_ptr", ptr %5, i32 0, i32 1
  %9 = load ptr, ptr %4, align 8, !tbaa !113
  call void @_ZNSt14__shared_countILN9__gnu_cxx12_Lock_policyE2EEC2IPN11OpenImageIO6v3_1_08ArgParse4ImplEEET_St17integral_constantIbLb0EE(ptr noundef nonnull align 8 dereferenceable(8) %8, ptr noundef %9)
  %10 = load ptr, ptr %4, align 8, !tbaa !113
  call void @_ZNSt12__shared_ptrIN11OpenImageIO6v3_1_08ArgParse4ImplELN9__gnu_cxx12_Lock_policyE2EE31_M_enable_shared_from_this_withIS3_S3_EENSt9enable_ifIXntsr15__has_esft_baseIT0_EE5valueEvE4typeEPT_(ptr noundef nonnull align 8 dereferenceable(16) %5, ptr noundef %10) #3
  ret void
}

; Function Attrs: mustprogress uwtable
define linkonce_odr void @_ZNSt10shared_ptrIN11OpenImageIO6v3_1_08ArgParse4ImplEEC2IS3_vEEPT_(ptr noundef nonnull align 8 dereferenceable(16) %0, ptr noundef %1) unnamed_addr #6 comdat align 2 {
  %3 = alloca ptr, align 8
  %4 = alloca ptr, align 8
  store ptr %0, ptr %3, align 8, !tbaa !140
  store ptr %1, ptr %4, align 8, !tbaa !113
  %5 = load ptr, ptr %3, align 8
  %6 = load ptr, ptr %4, align 8, !tbaa !113
  call void @_ZNSt12__shared_ptrIN11OpenImageIO6v3_1_08ArgParse4ImplELN9__gnu_cxx12_Lock_policyE2EEC2IS3_vEEPT_(ptr noundef nonnull align 8 dereferenceable(16) %5, ptr noundef %6)
  ret void
}

; Function Attrs: mustprogress uwtable
define void @_ZN11OpenImageIO6v3_1_08ArgParseC2EiPPKc(ptr noundef nonnull align 8 dereferenceable(16) %0, i32 noundef %1, ptr noundef %2) unnamed_addr #6 align 2 personality ptr @__gxx_personality_v0 {
  %4 = alloca ptr, align 8
  %5 = alloca i32, align 4
  %6 = alloca ptr, align 8
  %7 = alloca ptr, align 8
  %8 = alloca i32, align 4
  store ptr %0, ptr %4, align 8, !tbaa !10
  store i32 %1, ptr %5, align 4, !tbaa !47
  store ptr %2, ptr %6, align 8, !tbaa !115
  %9 = load ptr, ptr %4, align 8
  %10 = getelementptr inbounds nuw %"class.OpenImageIO::v3_1_0::ArgParse", ptr %9, i32 0, i32 0
  %11 = call noalias noundef nonnull ptr @_Znwm(i64 noundef 392) #31
  %12 = load i32, ptr %5, align 4, !tbaa !47
  %13 = load ptr, ptr %6, align 8, !tbaa !115
  invoke void @_ZN11OpenImageIO6v3_1_08ArgParse4ImplC2ERS1_iPPKc(ptr noundef nonnull align 8 dereferenceable(392) %11, ptr noundef nonnull align 8 dereferenceable(16) %9, i32 noundef %12, ptr noundef %13)
          to label %14 unwind label %15

14:                                               ; preds = %3
  call void @_ZNSt10shared_ptrIN11OpenImageIO6v3_1_08ArgParse4ImplEEC2IS3_vEEPT_(ptr noundef nonnull align 8 dereferenceable(16) %10, ptr noundef %11)
  ret void

15:                                               ; preds = %3
  %16 = landingpad { ptr, i32 }
          cleanup
  %17 = extractvalue { ptr, i32 } %16, 0
  store ptr %17, ptr %7, align 8
  %18 = extractvalue { ptr, i32 } %16, 1
  store i32 %18, ptr %8, align 4
  call void @_ZdlPvm(ptr noundef %11, i64 noundef 392) #27
  br label %19

19:                                               ; preds = %15
  %20 = load ptr, ptr %7, align 8
  %21 = load i32, ptr %8, align 4
  %22 = insertvalue { ptr, i32 } poison, ptr %20, 0
  %23 = insertvalue { ptr, i32 } %22, i32 %21, 1
  resume { ptr, i32 } %23
}