; Function Attrs: mustprogress uwtable
define void @_ZN11OpenImageIO6v3_1_08ArgParseC2EiPPKc(ptr noundef nonnull align 8 dereferenceable(16) %0, i32 noundef %1, ptr noundef %2) unnamed_addr #5 align 2 personality ptr @__gxx_personality_v0 {
  %4 = tail call noalias noundef nonnull dereferenceable(392) ptr @_Znwm(i64 noundef 392) #41
  invoke void @_ZN11OpenImageIO6v3_1_08ArgParse4ImplC2ERS1_iPPKc(ptr noundef nonnull align 8 dereferenceable(392) %4, ptr noundef nonnull align 8 dereferenceable(16) %0, i32 noundef %1, ptr noundef %2)
          to label %5 unwind label %7

5:                                                ; preds = %3
  store ptr %4, ptr %0, align 8, !tbaa !107
  %6 = getelementptr inbounds nuw i8, ptr %0, i64 8
  tail call void @_ZNSt14__shared_countILN9__gnu_cxx12_Lock_policyE2EEC2IPN11OpenImageIO6v3_1_08ArgParse4ImplEEET_(ptr noundef nonnull align 8 dereferenceable(8) %6, ptr noundef nonnull %4)
  ret void

7:                                                ; preds = %3
  %8 = landingpad { ptr, i32 }
          cleanup
  tail call void @_ZdlPvm(ptr noundef nonnull %4, i64 noundef 392) #37
  resume { ptr, i32 } %8
}